; Function Attrs: mustprogress uwtable
define hidden void @_ZN5osgeo4proj5datum13PrimeMeridian15createGREENWICHEv(ptr dead_on_unwind noalias writable sret(%"class.dropbox::oxygen::nn") align 8 %0) local_unnamed_addr #0 align 2 personality ptr @__gxx_personality_v0 {
  %2 = alloca %"class.osgeo::proj::util::PropertyMap", align 8
  %3 = alloca %"class.osgeo::proj::common::Angle", align 8
  call fastcc void @_ZN5osgeo4proj5datumL21createMapNameEPSGCodeEPKci(ptr dead_on_unwind noalias nonnull writable align 8 %2, ptr noundef nonnull @.str.4, i32 noundef 8901)
  invoke void @_ZN5osgeo4proj6common5AngleC1Ed(ptr noundef nonnull align 8 dereferenceable(24) %3, double noundef 0.000000e+00)
          to label %4 unwind label %8

4:                                                ; preds = %1
  invoke void @_ZN5osgeo4proj5datum13PrimeMeridian14nn_make_sharedIS2_JRKNS0_6common5AngleEEEEN7dropbox6oxygen2nnISt10shared_ptrIT_EEEDpOT0_(ptr dead_on_unwind writable sret(%"class.dropbox::oxygen::nn") align 8 %0, ptr noundef nonnull align 8 dereferenceable(24) %3)
          to label %.noexc unwind label %10

.noexc:                                           ; preds = %4
  %5 = load ptr, ptr %0, align 8, !alias.scope !13
  invoke void @_ZN5osgeo4proj6common16IdentifiedObject13setPropertiesERKNS0_4util11PropertyMapE(ptr noundef nonnull align 8 dereferenceable(40) %5, ptr noundef nonnull align 8 dereferenceable(8) %2)
          to label %_ZN5osgeo4proj5datum13PrimeMeridian6createERKNS0_4util11PropertyMapERKNS0_6common5AngleE.exit unwind label %6

6:                                                ; preds = %.noexc
  %7 = landingpad { ptr, i32 }
          cleanup
  call void @_ZN7dropbox6oxygen2nnISt10shared_ptrIN5osgeo4proj5datum13PrimeMeridianEEED2Ev(ptr noundef nonnull align 8 dereferenceable(16) %0) #26
  br label %.body

_ZN5osgeo4proj5datum13PrimeMeridian6createERKNS0_4util11PropertyMapERKNS0_6common5AngleE.exit: ; preds = %.noexc
  call void @_ZN5osgeo4proj6common5AngleD1Ev(ptr noundef nonnull align 8 dereferenceable(24) %3) #26
  call void @_ZN5osgeo4proj4util11PropertyMapD1Ev(ptr noundef nonnull align 8 dereferenceable(8) %2) #26
  ret void

8:                                                ; preds = %1
  %9 = landingpad { ptr, i32 }
          cleanup
  br label %12

10:                                               ; preds = %4
  %11 = landingpad { ptr, i32 }
          cleanup
  br label %.body

.body:                                            ; preds = %6, %10
  %eh.lpad-body = phi { ptr, i32 } [ %11, %10 ], [ %7, %6 ]
  call void @_ZN5osgeo4proj6common5AngleD1Ev(ptr noundef nonnull align 8 dereferenceable(24) %3) #26
  br label %12

12:                                               ; preds = %.body, %8
  %.pn = phi { ptr, i32 } [ %eh.lpad-body, %.body ], [ %9, %8 ]
  call void @_ZN5osgeo4proj4util11PropertyMapD1Ev(ptr noundef nonnull align 8 dereferenceable(8) %2) #26
  resume { ptr, i32 } %.pn
}